target datalayout = "e-m:e-p270:32:32-p271:32:32-p272:64:64-i64:64-i128:128-f80:128-n8:16:32:64-S128"
target triple = "x86_64-pc-linux-gnu"

%struct.AVFilterContext = type { ptr, ptr, ptr, ptr, ptr, i32, ptr, ptr, i32, ptr, ptr, i32, i32, ptr, ptr, ptr, ptr, i32, ptr, i32, i32 }
%struct.ConvolveContext = type { ptr, %struct.FFFrameSync, [4 x [16 x ptr]], [4 x [16 x ptr]], [4 x ptr], [4 x ptr], [4 x i32], [4 x i32], [4 x i32], [4 x i32], [4 x i32], [4 x i32], [4 x i32], [4 x ptr], [4 x ptr], [4 x ptr], [4 x ptr], [4 x ptr], [4 x ptr], [4 x ptr], [4 x ptr], i32, i32, i32, float, i32, [4 x i32], ptr, ptr, ptr, ptr }
%struct.FFFrameSync = type { ptr, ptr, i32, %struct.AVRational, i64, ptr, ptr, i32, i32, i8, i8, ptr, i32, i32, i32, i32 }
%struct.AVRational = type { i32, i32 }
%struct.AVFilter = type { ptr, ptr, ptr, ptr, ptr, i32 }

@.str = private unnamed_addr constant [9 x i8] c"convolve\00", align 1
@.str.2 = private unnamed_addr constant [11 x i8] c"deconvolve\00", align 1
@.str.4 = private unnamed_addr constant [11 x i8] c"xcorrelate\00", align 1

; Function Attrs: cold nounwind optsize uwtable
define internal i32 @init(ptr noundef %0) #1 {
  %2 = alloca i32, align 4
  %3 = alloca ptr, align 8
  %4 = alloca ptr, align 8
  %5 = alloca i32, align 4
  store ptr %0, ptr %3, align 8, !tbaa !4
  call void @llvm.lifetime.start.p0(i64 8, ptr %4) #10
  %6 = load ptr, ptr %3, align 8, !tbaa !4
  %7 = getelementptr inbounds nuw %struct.AVFilterContext, ptr %6, i32 0, i32 9
  %8 = load ptr, ptr %7, align 8, !tbaa !9
  store ptr %8, ptr %4, align 8, !tbaa !22
  %9 = load ptr, ptr %3, align 8, !tbaa !4
  %10 = getelementptr inbounds nuw %struct.AVFilterContext, ptr %9, i32 0, i32 1
  %11 = load ptr, ptr %10, align 8, !tbaa !24
  %12 = getelementptr inbounds nuw %struct.AVFilter, ptr %11, i32 0, i32 0
  %13 = load ptr, ptr %12, align 8, !tbaa !25
  %14 = call i32 @strcmp(ptr noundef %13, ptr noundef @.str) #11
  %15 = icmp ne i32 %14, 0
  br i1 %15, label %25, label %16

16:                                               ; preds = %1
  %17 = load ptr, ptr %4, align 8, !tbaa !22
  %18 = getelementptr inbounds nuw %struct.ConvolveContext, ptr %17, i32 0, i32 30
  store ptr @complex_multiply, ptr %18, align 8, !tbaa !27
  %19 = load ptr, ptr %4, align 8, !tbaa !22
  %20 = getelementptr inbounds nuw %struct.ConvolveContext, ptr %19, i32 0, i32 29
  store ptr @prepare_impulse, ptr %20, align 8, !tbaa !34
  %21 = load ptr, ptr %4, align 8, !tbaa !22
  %22 = getelementptr inbounds nuw %struct.ConvolveContext, ptr %21, i32 0, i32 27
  store ptr @get_input, ptr %22, align 8, !tbaa !35
  %23 = load ptr, ptr %4, align 8, !tbaa !22
  %24 = getelementptr inbounds nuw %struct.ConvolveContext, ptr %23, i32 0, i32 28
  store ptr @get_output, ptr %24, align 8, !tbaa !36
  br label %62

25:                                               ; preds = %1
  %26 = load ptr, ptr %3, align 8, !tbaa !4
  %27 = getelementptr inbounds nuw %struct.AVFilterContext, ptr %26, i32 0, i32 1
  %28 = load ptr, ptr %27, align 8, !tbaa !24
  %29 = getelementptr inbounds nuw %struct.AVFilter, ptr %28, i32 0, i32 0
  %30 = load ptr, ptr %29, align 8, !tbaa !25
  %31 = call i32 @strcmp(ptr noundef %30, ptr noundef @.str.4) #11
  %32 = icmp ne i32 %31, 0
  br i1 %32, label %42, label %33

33:                                               ; preds = %25
  %34 = load ptr, ptr %4, align 8, !tbaa !22
  %35 = getelementptr inbounds nuw %struct.ConvolveContext, ptr %34, i32 0, i32 30
  store ptr @complex_xcorrelate, ptr %35, align 8, !tbaa !27
  %36 = load ptr, ptr %4, align 8, !tbaa !22
  %37 = getelementptr inbounds nuw %struct.ConvolveContext, ptr %36, i32 0, i32 29
  store ptr @prepare_secondary, ptr %37, align 8, !tbaa !34
  %38 = load ptr, ptr %4, align 8, !tbaa !22
  %39 = getelementptr inbounds nuw %struct.ConvolveContext, ptr %38, i32 0, i32 27
  store ptr @get_zeropadded_input, ptr %39, align 8, !tbaa !35
  %40 = load ptr, ptr %4, align 8, !tbaa !22
  %41 = getelementptr inbounds nuw %struct.ConvolveContext, ptr %40, i32 0, i32 28
  store ptr @get_xoutput, ptr %41, align 8, !tbaa !36
  br label %61

42:                                               ; preds = %25
  %43 = load ptr, ptr %3, align 8, !tbaa !4
  %44 = getelementptr inbounds nuw %struct.AVFilterContext, ptr %43, i32 0, i32 1
  %45 = load ptr, ptr %44, align 8, !tbaa !24
  %46 = getelementptr inbounds nuw %struct.AVFilter, ptr %45, i32 0, i32 0
  %47 = load ptr, ptr %46, align 8, !tbaa !25
  %48 = call i32 @strcmp(ptr noundef %47, ptr noundef @.str.2) #11
  %49 = icmp ne i32 %48, 0
  br i1 %49, label %59, label %50

50:                                               ; preds = %42
  %51 = load ptr, ptr %4, align 8, !tbaa !22
  %52 = getelementptr inbounds nuw %struct.ConvolveContext, ptr %51, i32 0, i32 30
  store ptr @complex_divide, ptr %52, align 8, !tbaa !27
  %53 = load ptr, ptr %4, align 8, !tbaa !22
  %54 = getelementptr inbounds nuw %struct.ConvolveContext, ptr %53, i32 0, i32 29
  store ptr @prepare_impulse, ptr %54, align 8, !tbaa !34
  %55 = load ptr, ptr %4, align 8, !tbaa !22
  %56 = getelementptr inbounds nuw %struct.ConvolveContext, ptr %55, i32 0, i32 27
  store ptr @get_input, ptr %56, align 8, !tbaa !35
  %57 = load ptr, ptr %4, align 8, !tbaa !22
  %58 = getelementptr inbounds nuw %struct.ConvolveContext, ptr %57, i32 0, i32 28
  store ptr @get_output, ptr %58, align 8, !tbaa !36
  br label %60

59:                                               ; preds = %42
  store i32 -558323010, ptr %2, align 4
  store i32 1, ptr %5, align 4
  br label %63

60:                                               ; preds = %50
  br label %61

61:                                               ; preds = %60, %33
  br label %62

62:                                               ; preds = %61, %16
  store i32 0, ptr %2, align 4
  store i32 1, ptr %5, align 4
  br label %63

63:                                               ; preds = %62, %59
  call void @llvm.lifetime.end.p0(i64 8, ptr %4) #10
  %64 = load i32, ptr %2, align 4
  ret i32 %64
}