; Function Attrs: cold mustprogress nofree norecurse nounwind optsize willreturn memory(readwrite, inaccessiblemem: none) uwtable
define internal range(i32 -558323010, 1) i32 @init(ptr noundef readonly captures(none) %0) #1 {
  %2 = getelementptr inbounds nuw i8, ptr %0, i64 72
  %3 = load ptr, ptr %2, align 8, !tbaa !4
  %4 = getelementptr inbounds nuw i8, ptr %0, i64 8
  %5 = load ptr, ptr %4, align 8, !tbaa !20
  %6 = load ptr, ptr %5, align 8, !tbaa !21
  %7 = tail call i32 @strcmp(ptr noundef nonnull dereferenceable(1) %6, ptr noundef nonnull dereferenceable(9) @.str) #15
  %.not = icmp eq i32 %7, 0
  br i1 %.not, label %.sink.split, label %8

8:                                                ; preds = %1
  %9 = tail call i32 @strcmp(ptr noundef nonnull dereferenceable(1) %6, ptr noundef nonnull dereferenceable(11) @.str.4) #15
  %.not16 = icmp eq i32 %9, 0
  br i1 %.not16, label %.sink.split, label %10

10:                                               ; preds = %8
  %11 = tail call i32 @strcmp(ptr noundef nonnull dereferenceable(1) %6, ptr noundef nonnull dereferenceable(11) @.str.2) #15
  %.not17 = icmp eq i32 %11, 0
  br i1 %.not17, label %.sink.split, label %16

.sink.split:                                      ; preds = %10, %8, %1
  %complex_multiply.sink = phi ptr [ @complex_multiply, %1 ], [ @complex_xcorrelate, %8 ], [ @complex_divide, %10 ]
  %prepare_impulse.sink = phi ptr [ @prepare_impulse, %1 ], [ @prepare_secondary, %8 ], [ @prepare_impulse, %10 ]
  %get_input.sink = phi ptr [ @get_input, %1 ], [ @get_zeropadded_input, %8 ], [ @get_input, %10 ]
  %get_output.sink = phi ptr [ @get_output, %1 ], [ @get_xoutput, %8 ], [ @get_output, %10 ]
  %12 = getelementptr inbounds nuw i8, ptr %3, i64 1624
  store ptr %complex_multiply.sink, ptr %12, align 8, !tbaa !23
  %13 = getelementptr inbounds nuw i8, ptr %3, i64 1616
  store ptr %prepare_impulse.sink, ptr %13, align 8, !tbaa !31
  %14 = getelementptr inbounds nuw i8, ptr %3, i64 1600
  store ptr %get_input.sink, ptr %14, align 8, !tbaa !32
  %15 = getelementptr inbounds nuw i8, ptr %3, i64 1608
  store ptr %get_output.sink, ptr %15, align 8, !tbaa !33
  br label %16

16:                                               ; preds = %.sink.split, %10
  %.0 = phi i32 [ -558323010, %10 ], [ 0, %.sink.split ]
  ret i32 %.0
}